target datalayout = "e-m:e-p270:32:32-p271:32:32-p272:64:64-i64:64-i128:128-f80:128-n8:16:32:64-S128"
target triple = "x86_64-unknown-linux-gnu"

%struct.BlockDriverState = type { i32, i8, i8, i8, i8, i8, ptr, ptr, ptr, %struct.anon, i8, [4096 x i8], [4096 x i8], [4096 x i8], [16 x i8], ptr, [4096 x i8], %struct.BlockLimits, i32, i32, i32, i32, [32 x i8], %union.anon, %union.anon.0, %union.anon.1, i32, [16 x %struct.anon.2], ptr, %struct.anon.3, ptr, ptr, %struct.anon.4, ptr, ptr, i32, ptr, i64, i64, %struct.QemuMutex, %struct.anon.5, %struct.Stat64, i32, i32, i32, i32, i32, i32, %struct.QemuMutex, %struct.anon.6, %struct.CoQueue, i8, i32, i8, %struct.CoMutex, ptr, ptr }
%struct.anon = type { ptr }
%struct.BlockLimits = type { i32, i64, i32, i64, i32, i32, i32, i64, i32, i64, i64, i32, i8, i32, i32, i32, i32, i32, i32, i32 }
%union.anon = type { %struct.QTailQLink }
%struct.QTailQLink = type { ptr, ptr }
%union.anon.0 = type { %struct.QTailQLink }
%union.anon.1 = type { %struct.QTailQLink }
%struct.anon.2 = type { ptr }
%struct.anon.3 = type { ptr }
%struct.anon.4 = type { ptr }
%struct.anon.5 = type { ptr }
%struct.Stat64 = type { i64 }
%struct.QemuMutex = type { %union.pthread_mutex_t, i8 }
%union.pthread_mutex_t = type { %struct.__pthread_mutex_s }
%struct.__pthread_mutex_s = type { i32, i32, i32, i32, i32, i16, i16, %struct.__pthread_internal_list }
%struct.__pthread_internal_list = type { ptr, ptr }
%struct.anon.6 = type { ptr }
%struct.CoQueue = type { %struct.anon.7 }
%struct.anon.7 = type { ptr, ptr }
%struct.CoMutex = type { i32, ptr, %struct.anon.8, %struct.anon.8, i32, i32, ptr }
%struct.anon.8 = type { ptr }
%struct.BDRVQcow2State = type { i32, i32, i32, i32, i32, i32, i32, i32, i32, i32, i32, i32, i32, i32, i64, i64, ptr, ptr, ptr, ptr, i32, %struct.anon.9, ptr, i64, i32, i32, i64, i64, %struct.CoMutex, %struct.Qcow2CryptoHeaderExtension, ptr, ptr, i8, i32, i64, i32, i32, ptr, i32, i64, i64, i32, i32, i8, i32, i32, i64, ptr, ptr, [5 x i8], i8, i32, i8, i64, i64, i64, i64, ptr, %struct.anon.10, %union.anon.11, i8, ptr, ptr, ptr, %struct.CoQueue, i32, ptr, i8, i8, i32 }
%struct.anon.9 = type { ptr }
%struct.Qcow2CryptoHeaderExtension = type { i64, i64 }
%struct.anon.10 = type { ptr }
%union.anon.11 = type { %struct.QTailQLink }
%struct.Qcow2DiscardRegion = type { ptr, i64, i64, %union.anon.15 }
%union.anon.15 = type { %struct.QTailQLink }
%struct.timeval = type { i64, i64 }

@trace_events_enabled_count = external global i32, align 4
@_TRACE_QCOW2_PROCESS_DISCARDS_FAILED_REGION_DSTATE = external global i16, align 2
@message_with_timestamp = external global i8, align 1
@.str.50 = private unnamed_addr constant [83 x i8] c"%d@%zu.%06zu:qcow2_process_discards_failed_region offset 0x%lx bytes 0x%lx ret %d\0A\00", align 1
@.str.51 = private unnamed_addr constant [70 x i8] c"qcow2_process_discards_failed_region offset 0x%lx bytes 0x%lx ret %d\0A\00", align 1
@qemu_loglevel = external global i32, align 4

; Function Attrs: nounwind sspstrong uwtable
define internal zeroext i1 @qemu_loglevel_mask(i32 noundef %mask) #0 {
entry:
  %mask.addr = alloca i32, align 4
  store i32 %mask, ptr %mask.addr, align 4
  %0 = load i32, ptr @qemu_loglevel, align 4
  %1 = load i32, ptr %mask.addr, align 4
  %and = and i32 %0, %1
  %cmp = icmp ne i32 %and, 0
  ret i1 %cmp
}

; Function Attrs: nounwind sspstrong uwtable
define internal void @_nocheck__trace_qcow2_process_discards_failed_region(i64 noundef %offset, i64 noundef %bytes, i32 noundef %ret) #0 {
entry:
  %offset.addr = alloca i64, align 8
  %bytes.addr = alloca i64, align 8
  %ret.addr = alloca i32, align 4
  %_now = alloca %struct.timeval, align 8
  store i64 %offset, ptr %offset.addr, align 8
  store i64 %bytes, ptr %bytes.addr, align 8
  store i32 %ret, ptr %ret.addr, align 4
  %0 = load i32, ptr @trace_events_enabled_count, align 4
  %tobool = icmp ne i32 %0, 0
  %lnot = xor i1 %tobool, true
  %lnot1 = xor i1 %lnot, true
  %lnot.ext = zext i1 %lnot1 to i32
  %conv = sext i32 %lnot.ext to i64
  %tobool2 = icmp ne i64 %conv, 0
  br i1 %tobool2, label %land.lhs.true, label %if.end11

land.lhs.true:                                    ; preds = %entry
  %1 = load i16, ptr @_TRACE_QCOW2_PROCESS_DISCARDS_FAILED_REGION_DSTATE, align 2
  %conv3 = zext i16 %1 to i32
  %tobool4 = icmp ne i32 %conv3, 0
  br i1 %tobool4, label %land.lhs.true5, label %if.end11

land.lhs.true5:                                   ; preds = %land.lhs.true
  %call = call zeroext i1 @qemu_loglevel_mask(i32 noundef 32768)
  br i1 %call, label %if.then, label %if.end11

if.then:                                          ; preds = %land.lhs.true5
  %2 = load i8, ptr @message_with_timestamp, align 1
  %tobool7 = trunc i8 %2 to i1
  br i1 %tobool7, label %if.then8, label %if.else

if.then8:                                         ; preds = %if.then
  %call9 = call i32 @gettimeofday(ptr noundef %_now, ptr noundef null) #13
  %call10 = call i32 @qemu_get_thread_id()
  %tv_sec = getelementptr inbounds %struct.timeval, ptr %_now, i32 0, i32 0
  %3 = load i64, ptr %tv_sec, align 8
  %tv_usec = getelementptr inbounds %struct.timeval, ptr %_now, i32 0, i32 1
  %4 = load i64, ptr %tv_usec, align 8
  %5 = load i64, ptr %offset.addr, align 8
  %6 = load i64, ptr %bytes.addr, align 8
  %7 = load i32, ptr %ret.addr, align 4
  call void (ptr, ...) @qemu_log(ptr noundef @.str.50, i32 noundef %call10, i64 noundef %3, i64 noundef %4, i64 noundef %5, i64 noundef %6, i32 noundef %7)
  br label %if.end

if.else:                                          ; preds = %if.then
  %8 = load i64, ptr %offset.addr, align 8
  %9 = load i64, ptr %bytes.addr, align 8
  %10 = load i32, ptr %ret.addr, align 4
  call void (ptr, ...) @qemu_log(ptr noundef @.str.51, i64 noundef %8, i64 noundef %9, i32 noundef %10)
  br label %if.end

if.end:                                           ; preds = %if.else, %if.then8
  br label %if.end11

if.end11:                                         ; preds = %if.end, %land.lhs.true5, %land.lhs.true, %entry
  ret void
}

; Function Attrs: nounwind sspstrong uwtable
define internal void @trace_qcow2_process_discards_failed_region(i64 noundef %offset, i64 noundef %bytes, i32 noundef %ret) #0 {
entry:
  %offset.addr = alloca i64, align 8
  %bytes.addr = alloca i64, align 8
  %ret.addr = alloca i32, align 4
  store i64 %offset, ptr %offset.addr, align 8
  store i64 %bytes, ptr %bytes.addr, align 8
  store i32 %ret, ptr %ret.addr, align 4
  %0 = load i64, ptr %offset.addr, align 8
  %1 = load i64, ptr %bytes.addr, align 8
  %2 = load i32, ptr %ret.addr, align 4
  call void @_nocheck__trace_qcow2_process_discards_failed_region(i64 noundef %0, i64 noundef %1, i32 noundef %2)
  ret void
}

; Function Attrs: nounwind sspstrong uwtable
define dso_local void @qcow2_process_discards(ptr noundef %bs, i32 noundef %ret) #0 {
entry:
  %bs.addr = alloca ptr, align 8
  %ret.addr = alloca i32, align 4
  %s = alloca ptr, align 8
  %d = alloca ptr, align 8
  %next = alloca ptr, align 8
  %r2 = alloca i32, align 4
  store ptr %bs, ptr %bs.addr, align 8
  store i32 %ret, ptr %ret.addr, align 4
  %0 = load ptr, ptr %bs.addr, align 8
  %opaque = getelementptr inbounds %struct.BlockDriverState, ptr %0, i32 0, i32 7
  %1 = load ptr, ptr %opaque, align 8
  store ptr %1, ptr %s, align 8
  %2 = load ptr, ptr %s, align 8
  %discards = getelementptr inbounds %struct.BDRVQcow2State, ptr %2, i32 0, i32 59
  %3 = load ptr, ptr %discards, align 8
  store ptr %3, ptr %d, align 8
  br label %for.cond

for.cond:                                         ; preds = %for.inc, %entry
  %4 = load ptr, ptr %d, align 8
  %tobool = icmp ne ptr %4, null
  br i1 %tobool, label %land.rhs, label %land.end

land.rhs:                                         ; preds = %for.cond
  %5 = load ptr, ptr %d, align 8
  %next1 = getelementptr inbounds %struct.Qcow2DiscardRegion, ptr %5, i32 0, i32 3
  %6 = load ptr, ptr %next1, align 8
  store ptr %6, ptr %next, align 8
  br label %land.end

land.end:                                         ; preds = %land.rhs, %for.cond
  %7 = phi i1 [ false, %for.cond ], [ true, %land.rhs ]
  br i1 %7, label %for.body, label %for.end

for.body:                                         ; preds = %land.end
  br label %do.body

do.body:                                          ; preds = %for.body
  %8 = load ptr, ptr %d, align 8
  %next2 = getelementptr inbounds %struct.Qcow2DiscardRegion, ptr %8, i32 0, i32 3
  %9 = load ptr, ptr %next2, align 8
  %cmp = icmp ne ptr %9, null
  br i1 %cmp, label %if.then, label %if.else

if.then:                                          ; preds = %do.body
  %10 = load ptr, ptr %d, align 8
  %next3 = getelementptr inbounds %struct.Qcow2DiscardRegion, ptr %10, i32 0, i32 3
  %tql_prev = getelementptr inbounds %struct.QTailQLink, ptr %next3, i32 0, i32 1
  %11 = load ptr, ptr %tql_prev, align 8
  %12 = load ptr, ptr %d, align 8
  %next4 = getelementptr inbounds %struct.Qcow2DiscardRegion, ptr %12, i32 0, i32 3
  %13 = load ptr, ptr %next4, align 8
  %next5 = getelementptr inbounds %struct.Qcow2DiscardRegion, ptr %13, i32 0, i32 3
  %tql_prev6 = getelementptr inbounds %struct.QTailQLink, ptr %next5, i32 0, i32 1
  store ptr %11, ptr %tql_prev6, align 8
  br label %if.end

if.else:                                          ; preds = %do.body
  %14 = load ptr, ptr %d, align 8
  %next7 = getelementptr inbounds %struct.Qcow2DiscardRegion, ptr %14, i32 0, i32 3
  %tql_prev8 = getelementptr inbounds %struct.QTailQLink, ptr %next7, i32 0, i32 1
  %15 = load ptr, ptr %tql_prev8, align 8
  %16 = load ptr, ptr %s, align 8
  %discards9 = getelementptr inbounds %struct.BDRVQcow2State, ptr %16, i32 0, i32 59
  %tql_prev10 = getelementptr inbounds %struct.QTailQLink, ptr %discards9, i32 0, i32 1
  store ptr %15, ptr %tql_prev10, align 8
  br label %if.end

if.end:                                           ; preds = %if.else, %if.then
  %17 = load ptr, ptr %d, align 8
  %next11 = getelementptr inbounds %struct.Qcow2DiscardRegion, ptr %17, i32 0, i32 3
  %18 = load ptr, ptr %next11, align 8
  %19 = load ptr, ptr %d, align 8
  %next12 = getelementptr inbounds %struct.Qcow2DiscardRegion, ptr %19, i32 0, i32 3
  %tql_prev13 = getelementptr inbounds %struct.QTailQLink, ptr %next12, i32 0, i32 1
  %20 = load ptr, ptr %tql_prev13, align 8
  %tql_next = getelementptr inbounds %struct.QTailQLink, ptr %20, i32 0, i32 0
  store ptr %18, ptr %tql_next, align 8
  %21 = load ptr, ptr %d, align 8
  %next14 = getelementptr inbounds %struct.Qcow2DiscardRegion, ptr %21, i32 0, i32 3
  %tql_prev15 = getelementptr inbounds %struct.QTailQLink, ptr %next14, i32 0, i32 1
  store ptr null, ptr %tql_prev15, align 8
  %22 = load ptr, ptr %d, align 8
  %next16 = getelementptr inbounds %struct.Qcow2DiscardRegion, ptr %22, i32 0, i32 3
  %tql_next17 = getelementptr inbounds %struct.QTailQLink, ptr %next16, i32 0, i32 0
  store ptr null, ptr %tql_next17, align 8
  %23 = load ptr, ptr %d, align 8
  %next18 = getelementptr inbounds %struct.Qcow2DiscardRegion, ptr %23, i32 0, i32 3
  store ptr null, ptr %next18, align 8
  br label %do.end

do.end:                                           ; preds = %if.end
  %24 = load i32, ptr %ret.addr, align 4
  %cmp19 = icmp sge i32 %24, 0
  br i1 %cmp19, label %if.then20, label %if.end26

if.then20:                                        ; preds = %do.end
  %25 = load ptr, ptr %bs.addr, align 8
  %file = getelementptr inbounds %struct.BlockDriverState, ptr %25, i32 0, i32 31
  %26 = load ptr, ptr %file, align 8
  %27 = load ptr, ptr %d, align 8
  %offset = getelementptr inbounds %struct.Qcow2DiscardRegion, ptr %27, i32 0, i32 1
  %28 = load i64, ptr %offset, align 8
  %29 = load ptr, ptr %d, align 8
  %bytes = getelementptr inbounds %struct.Qcow2DiscardRegion, ptr %29, i32 0, i32 2
  %30 = load i64, ptr %bytes, align 8
  %call = call i32 @bdrv_pdiscard(ptr noundef %26, i64 noundef %28, i64 noundef %30)
  store i32 %call, ptr %r2, align 4
  %31 = load i32, ptr %r2, align 4
  %cmp21 = icmp slt i32 %31, 0
  br i1 %cmp21, label %if.then22, label %if.end25

if.then22:                                        ; preds = %if.then20
  %32 = load ptr, ptr %d, align 8
  %offset23 = getelementptr inbounds %struct.Qcow2DiscardRegion, ptr %32, i32 0, i32 1
  %33 = load i64, ptr %offset23, align 8
  %34 = load ptr, ptr %d, align 8
  %bytes24 = getelementptr inbounds %struct.Qcow2DiscardRegion, ptr %34, i32 0, i32 2
  %35 = load i64, ptr %bytes24, align 8
  %36 = load i32, ptr %r2, align 4
  call void @trace_qcow2_process_discards_failed_region(i64 noundef %33, i64 noundef %35, i32 noundef %36)
  br label %if.end25

if.end25:                                         ; preds = %if.then22, %if.then20
  br label %if.end26

if.end26:                                         ; preds = %if.end25, %do.end
  %37 = load ptr, ptr %d, align 8
  call void @g_free(ptr noundef %37)
  br label %for.inc

for.inc:                                          ; preds = %if.end26
  %38 = load ptr, ptr %next, align 8
  store ptr %38, ptr %d, align 8
  br label %for.cond, !llvm.loop !13

for.end:                                          ; preds = %land.end
  ret void
}