; Function Attrs: nounwind sspstrong uwtable
define dso_local void @qcow2_process_discards(ptr noundef readonly captures(none) %bs, i32 noundef %ret) local_unnamed_addr #0 {
entry:
  %_now.i.i = alloca %struct.timeval, align 8
  %opaque = getelementptr inbounds nuw i8, ptr %bs, i64 24
  %0 = load ptr, ptr %opaque, align 8
  %discards = getelementptr inbounds nuw i8, ptr %0, i64 408
  %1 = load ptr, ptr %discards, align 8
  %tobool.not19 = icmp eq ptr %1, null
  br i1 %tobool.not19, label %for.end, label %land.rhs.lr.ph

land.rhs.lr.ph:                                   ; preds = %entry
  %tql_prev10 = getelementptr inbounds nuw i8, ptr %0, i64 416
  %cmp19 = icmp sgt i32 %ret, -1
  %file = getelementptr inbounds nuw i8, ptr %bs, i64 16840
  %tv_usec.i.i = getelementptr inbounds nuw i8, ptr %_now.i.i, i64 8
  br i1 %cmp19, label %land.rhs.us, label %land.rhs

land.rhs.us:                                      ; preds = %land.rhs.lr.ph, %if.end26.us
  %d.020.us = phi ptr [ %2, %if.end26.us ], [ %1, %land.rhs.lr.ph ]
  %next1.us = getelementptr inbounds nuw i8, ptr %d.020.us, i64 24
  %2 = load ptr, ptr %next1.us, align 8
  %cmp.not.us = icmp eq ptr %2, null
  %tql_prev8.us = getelementptr inbounds nuw i8, ptr %d.020.us, i64 32
  %3 = load ptr, ptr %tql_prev8.us, align 8
  br i1 %cmp.not.us, label %if.else.us, label %if.then.us

if.then.us:                                       ; preds = %land.rhs.us
  %tql_prev6.us = getelementptr inbounds nuw i8, ptr %2, i64 32
  store ptr %3, ptr %tql_prev6.us, align 8
  br label %if.end.us

if.else.us:                                       ; preds = %land.rhs.us
  store ptr %3, ptr %tql_prev10, align 8
  br label %if.end.us

if.end.us:                                        ; preds = %if.else.us, %if.then.us
  %4 = load ptr, ptr %next1.us, align 8
  store ptr %4, ptr %3, align 8
  tail call void @llvm.memset.p0.i64(ptr noundef nonnull align 8 dereferenceable(16) %next1.us, i8 0, i64 16, i1 false)
  %5 = load ptr, ptr %file, align 8
  %offset.us = getelementptr inbounds nuw i8, ptr %d.020.us, i64 8
  %6 = load i64, ptr %offset.us, align 8
  %bytes.us = getelementptr inbounds nuw i8, ptr %d.020.us, i64 16
  %7 = load i64, ptr %bytes.us, align 8
  %call.us = tail call i32 @bdrv_pdiscard(ptr noundef %5, i64 noundef %6, i64 noundef %7) #17
  %cmp21.us = icmp slt i32 %call.us, 0
  br i1 %cmp21.us, label %if.then22.us, label %if.end26.us

if.then22.us:                                     ; preds = %if.end.us
  %8 = load i64, ptr %offset.us, align 8
  %9 = load i64, ptr %bytes.us, align 8
  call void @llvm.lifetime.start.p0(i64 16, ptr nonnull %_now.i.i)
  %10 = load i32, ptr @trace_events_enabled_count, align 4
  %tobool.i.i.us = icmp ne i32 %10, 0
  %11 = load i16, ptr @_TRACE_QCOW2_PROCESS_DISCARDS_FAILED_REGION_DSTATE, align 2
  %tobool4.i.i.us = icmp ne i16 %11, 0
  %or.cond.i.i.us = select i1 %tobool.i.i.us, i1 %tobool4.i.i.us, i1 false
  br i1 %or.cond.i.i.us, label %land.lhs.true5.i.i.us, label %trace_qcow2_process_discards_failed_region.exit.us

land.lhs.true5.i.i.us:                            ; preds = %if.then22.us
  %12 = load i32, ptr @qemu_loglevel, align 4
  %and.i.i.i.us = and i32 %12, 32768
  %cmp.i.not.i.i.us = icmp eq i32 %and.i.i.i.us, 0
  br i1 %cmp.i.not.i.i.us, label %trace_qcow2_process_discards_failed_region.exit.us, label %if.then.i.i.us

if.then.i.i.us:                                   ; preds = %land.lhs.true5.i.i.us
  %13 = load i8, ptr @message_with_timestamp, align 1
  %tobool7.i.i.us = trunc i8 %13 to i1
  br i1 %tobool7.i.i.us, label %if.then8.i.i.us, label %if.else.i.i.us

if.else.i.i.us:                                   ; preds = %if.then.i.i.us
  tail call void (ptr, ...) @qemu_log(ptr noundef nonnull @.str.51, i64 noundef %8, i64 noundef %9, i32 noundef range(i32 -2147483648, 0) %call.us) #17
  br label %trace_qcow2_process_discards_failed_region.exit.us

if.then8.i.i.us:                                  ; preds = %if.then.i.i.us
  %call9.i.i.us = call i32 @gettimeofday(ptr noundef nonnull %_now.i.i, ptr noundef null) #17
  %call10.i.i.us = tail call i32 @qemu_get_thread_id() #17
  %14 = load i64, ptr %_now.i.i, align 8
  %15 = load i64, ptr %tv_usec.i.i, align 8
  tail call void (ptr, ...) @qemu_log(ptr noundef nonnull @.str.50, i32 noundef %call10.i.i.us, i64 noundef %14, i64 noundef %15, i64 noundef %8, i64 noundef %9, i32 noundef range(i32 -2147483648, 0) %call.us) #17
  br label %trace_qcow2_process_discards_failed_region.exit.us

trace_qcow2_process_discards_failed_region.exit.us: ; preds = %if.then8.i.i.us, %if.else.i.i.us, %land.lhs.true5.i.i.us, %if.then22.us
  call void @llvm.lifetime.end.p0(i64 16, ptr nonnull %_now.i.i)
  br label %if.end26.us

if.end26.us:                                      ; preds = %trace_qcow2_process_discards_failed_region.exit.us, %if.end.us
  tail call void @g_free(ptr noundef nonnull %d.020.us) #17
  br i1 %cmp.not.us, label %for.end, label %land.rhs.us, !llvm.loop !13

land.rhs:                                         ; preds = %land.rhs.lr.ph, %if.end
  %d.020 = phi ptr [ %16, %if.end ], [ %1, %land.rhs.lr.ph ]
  %next1 = getelementptr inbounds nuw i8, ptr %d.020, i64 24
  %16 = load ptr, ptr %next1, align 8
  %cmp.not = icmp eq ptr %16, null
  %tql_prev8 = getelementptr inbounds nuw i8, ptr %d.020, i64 32
  %17 = load ptr, ptr %tql_prev8, align 8
  br i1 %cmp.not, label %if.else, label %if.then

if.then:                                          ; preds = %land.rhs
  %tql_prev6 = getelementptr inbounds nuw i8, ptr %16, i64 32
  store ptr %17, ptr %tql_prev6, align 8
  br label %if.end

if.else:                                          ; preds = %land.rhs
  store ptr %17, ptr %tql_prev10, align 8
  br label %if.end

if.end:                                           ; preds = %if.else, %if.then
  %18 = load ptr, ptr %next1, align 8
  store ptr %18, ptr %17, align 8
  tail call void @llvm.memset.p0.i64(ptr noundef nonnull align 8 dereferenceable(16) %next1, i8 0, i64 16, i1 false)
  tail call void @g_free(ptr noundef nonnull %d.020) #17
  br i1 %cmp.not, label %for.end, label %land.rhs, !llvm.loop !13

for.end:                                          ; preds = %if.end, %if.end26.us, %entry
  ret void
}